; Function Attrs: mustprogress nofree norecurse nosync nounwind willreturn memory(argmem: write) uwtable
define hidden void @_ZN10duckdb_re216CharClassBuilderC2Ev(ptr noundef nonnull align 8 dereferenceable(64) initializes((24, 28), (32, 40)) %0) unnamed_addr #0 align 2 personality ptr @__gxx_personality_v0 {
  %2 = getelementptr inbounds nuw i8, ptr %0, i64 24
  store i32 0, ptr %2, align 8, !tbaa !114
  %3 = getelementptr inbounds nuw i8, ptr %0, i64 32
  store ptr null, ptr %3, align 8, !tbaa !33
  %4 = getelementptr inbounds nuw i8, ptr %0, i64 40
  store ptr %2, ptr %4, align 8, !tbaa !115
  %5 = getelementptr inbounds nuw i8, ptr %0, i64 48
  store ptr %2, ptr %5, align 8, !tbaa !116
  %6 = getelementptr inbounds nuw i8, ptr %0, i64 56
  store i64 0, ptr %6, align 8, !tbaa !50
  %7 = getelementptr inbounds nuw i8, ptr %0, i64 8
  store i32 0, ptr %7, align 8, !tbaa !117
  store i32 0, ptr %0, align 8, !tbaa !124
  %8 = getelementptr inbounds nuw i8, ptr %0, i64 4
  store i32 0, ptr %8, align 4, !tbaa !125
  ret void
}